; Function Attrs: nounwind uwtable
define internal fastcc ptr @get_summary(ptr noundef %0) unnamed_addr #0 {
  %2 = tail call ptr @_PyInterpreterState_GetIDObject(ptr noundef %0) #7
  %3 = icmp eq ptr %2, null
  br i1 %3, label %Py_DECREF.exit16, label %4

4:                                                ; preds = %1
  %5 = tail call i64 @_PyInterpreterState_GetWhence(ptr noundef %0) #7
  %6 = tail call ptr @PyLong_FromLong(i64 noundef %5) #7
  %7 = icmp eq ptr %6, null
  br i1 %7, label %8, label %13

8:                                                ; preds = %4
  %9 = load i32, ptr %2, align 8, !tbaa !11
  %.not.i15 = icmp sgt i32 %9, -1
  br i1 %.not.i15, label %10, label %Py_DECREF.exit16

10:                                               ; preds = %8
  %11 = add nsw i32 %9, -1
  store i32 %11, ptr %2, align 8, !tbaa !11
  %12 = icmp eq i32 %11, 0
  br i1 %12, label %Py_DECREF.exit16.sink.split, label %Py_DECREF.exit16

13:                                               ; preds = %4
  %14 = tail call ptr (i64, ...) @PyTuple_Pack(i64 noundef 2, ptr noundef nonnull %2, ptr noundef nonnull %6) #7
  %15 = load i32, ptr %2, align 8, !tbaa !11
  %.not.i13 = icmp sgt i32 %15, -1
  br i1 %.not.i13, label %16, label %Py_DECREF.exit14

16:                                               ; preds = %13
  %17 = add nsw i32 %15, -1
  store i32 %17, ptr %2, align 8, !tbaa !11
  %18 = icmp eq i32 %17, 0
  br i1 %18, label %19, label %Py_DECREF.exit14

19:                                               ; preds = %16
  tail call void @_Py_Dealloc(ptr noundef nonnull %2) #7
  br label %Py_DECREF.exit14

Py_DECREF.exit14:                                 ; preds = %13, %16, %19
  %20 = load i32, ptr %6, align 8, !tbaa !11
  %.not.i = icmp sgt i32 %20, -1
  br i1 %.not.i, label %21, label %Py_DECREF.exit16

21:                                               ; preds = %Py_DECREF.exit14
  %22 = add nsw i32 %20, -1
  store i32 %22, ptr %6, align 8, !tbaa !11
  %23 = icmp eq i32 %22, 0
  br i1 %23, label %Py_DECREF.exit16.sink.split, label %Py_DECREF.exit16

Py_DECREF.exit16.sink.split:                      ; preds = %21, %10
  %.sink = phi ptr [ %2, %10 ], [ %6, %21 ]
  %.0.ph = phi ptr [ null, %10 ], [ %14, %21 ]
  tail call void @_Py_Dealloc(ptr noundef nonnull %.sink) #7
  br label %Py_DECREF.exit16

Py_DECREF.exit16:                                 ; preds = %Py_DECREF.exit16.sink.split, %21, %Py_DECREF.exit14, %10, %8, %1
  %.0 = phi ptr [ null, %1 ], [ null, %8 ], [ null, %10 ], [ %14, %Py_DECREF.exit14 ], [ %14, %21 ], [ %.0.ph, %Py_DECREF.exit16.sink.split ]
  ret ptr %.0
}